; Function Attrs: mustprogress nofree nounwind willreturn memory(read, inaccessiblemem: none) uwtable
define dso_local { ptr, i64 } @_ZN4llvm4CSKY13getDefaultCPUENS_9StringRefE(ptr %0, i64 %1) local_unnamed_addr #2 {
  %.fr8 = freeze i64 %1
  %3 = icmp eq i64 %.fr8, 0
  br i1 %3, label %.split.us, label %.split

.split.us:                                        ; preds = %2, %_ZN4llvmeqENS_9StringRefES0_.exit.thread10.i.us
  %.08.idx20.i.us = phi i64 [ %.08.add.i.us, %_ZN4llvmeqENS_9StringRefES0_.exit.thread10.i.us ], [ 0, %2 ]
  %gep = getelementptr inbounds nuw i8, ptr getelementptr inbounds nuw (i8, ptr @_ZN4llvm4CSKYL9ARCHNamesE, i64 8), i64 %.08.idx20.i.us
  %.sroa.2.0.copyload.i.us = load i64, ptr %gep, align 8
  %.not.i.i.us = icmp eq i64 %.sroa.2.0.copyload.i.us, 0
  br i1 %.not.i.i.us, label %_ZN4llvm4CSKY9parseArchENS_9StringRefE.exit, label %_ZN4llvmeqENS_9StringRefES0_.exit.thread10.i.us

_ZN4llvmeqENS_9StringRefES0_.exit.thread10.i.us:  ; preds = %.split.us
  %.08.add.i.us = add nuw nsw i64 %.08.idx20.i.us, 32
  %.not.i.us = icmp eq i64 %.08.add.i.us, 384
  br i1 %.not.i.us, label %_ZN4llvm4CSKY9parseArchENS_9StringRefE.exit.thread, label %.split.us

.split:                                           ; preds = %2, %_ZN4llvmeqENS_9StringRefES0_.exit.thread10.i
  %.08.idx20.i = phi i64 [ %.08.add.i, %_ZN4llvmeqENS_9StringRefES0_.exit.thread10.i ], [ 0, %2 ]
  %.08.ptr.i = getelementptr inbounds nuw i8, ptr @_ZN4llvm4CSKYL9ARCHNamesE, i64 %.08.idx20.i
  %.sroa.2.0..08.ptr.sroa_idx.i = getelementptr inbounds nuw i8, ptr %.08.ptr.i, i64 8
  %.sroa.2.0.copyload.i = load i64, ptr %.sroa.2.0..08.ptr.sroa_idx.i, align 8
  %.not.i.i = icmp eq i64 %.sroa.2.0.copyload.i, %.fr8
  br i1 %.not.i.i, label %_ZN4llvmeqENS_9StringRefES0_.exit.i, label %_ZN4llvmeqENS_9StringRefES0_.exit.thread10.i

_ZN4llvmeqENS_9StringRefES0_.exit.i:              ; preds = %.split
  %.sroa.0.0.copyload.i = load ptr, ptr %.08.ptr.i, align 16
  %bcmp.i.i = tail call i32 @bcmp(ptr %.sroa.0.0.copyload.i, ptr readonly %0, i64 %.fr8)
  %4 = icmp eq i32 %bcmp.i.i, 0
  br i1 %4, label %_ZN4llvm4CSKY9parseArchENS_9StringRefE.exit, label %_ZN4llvmeqENS_9StringRefES0_.exit.thread10.i

_ZN4llvmeqENS_9StringRefES0_.exit.thread10.i:     ; preds = %_ZN4llvmeqENS_9StringRefES0_.exit.i, %.split
  %.08.add.i = add nuw nsw i64 %.08.idx20.i, 32
  %.not.i = icmp eq i64 %.08.add.i, 384
  br i1 %.not.i, label %_ZN4llvm4CSKY9parseArchENS_9StringRefE.exit.thread, label %.split

_ZN4llvm4CSKY9parseArchENS_9StringRefE.exit:      ; preds = %_ZN4llvmeqENS_9StringRefES0_.exit.i, %.split.us
  %5 = phi i64 [ %.08.idx20.i.us, %.split.us ], [ %.08.idx20.i, %_ZN4llvmeqENS_9StringRefES0_.exit.i ]
  %6 = getelementptr inbounds nuw i8, ptr @_ZN4llvm4CSKYL9ARCHNamesE, i64 %5
  %.sroa.3.0..08.ptr.sroa_idx.le18.i = getelementptr inbounds nuw i8, ptr %6, i64 16
  %.sroa.3.0.copyload.le.i = load i32, ptr %.sroa.3.0..08.ptr.sroa_idx.le18.i, align 16
  %7 = icmp eq i32 %.sroa.3.0.copyload.le.i, 0
  %spec.select = select i1 %7, ptr null, ptr %0
  %spec.select5 = select i1 %7, i64 0, i64 %.fr8
  br label %_ZN4llvm4CSKY9parseArchENS_9StringRefE.exit.thread

_ZN4llvm4CSKY9parseArchENS_9StringRefE.exit.thread: ; preds = %_ZN4llvmeqENS_9StringRefES0_.exit.thread10.i, %_ZN4llvmeqENS_9StringRefES0_.exit.thread10.i.us, %_ZN4llvm4CSKY9parseArchENS_9StringRefE.exit
  %.sroa.0.0 = phi ptr [ %spec.select, %_ZN4llvm4CSKY9parseArchENS_9StringRefE.exit ], [ null, %_ZN4llvmeqENS_9StringRefES0_.exit.thread10.i.us ], [ null, %_ZN4llvmeqENS_9StringRefES0_.exit.thread10.i ]
  %.sroa.4.0 = phi i64 [ %spec.select5, %_ZN4llvm4CSKY9parseArchENS_9StringRefE.exit ], [ 0, %_ZN4llvmeqENS_9StringRefES0_.exit.thread10.i.us ], [ 0, %_ZN4llvmeqENS_9StringRefES0_.exit.thread10.i ]
  %.fca.0.insert = insertvalue { ptr, i64 } poison, ptr %.sroa.0.0, 0
  %.fca.1.insert = insertvalue { ptr, i64 } %.fca.0.insert, i64 %.sroa.4.0, 1
  ret { ptr, i64 } %.fca.1.insert
}